target datalayout = "e-m:e-p270:32:32-p271:32:32-p272:64:64-i64:64-i128:128-f80:128-n8:16:32:64-S128"
target triple = "x86_64-pc-linux-gnu"

%struct.CVodeMemRec = type { ptr, double, ptr, ptr, i32, i32, double, double, ptr, i32, i32, ptr, ptr, i32, [13 x ptr], ptr, ptr, ptr, ptr, ptr, ptr, ptr, ptr, ptr, i32, i32, double, i32, i32, i32, i32, i32, double, double, double, double, double, double, double, double, [14 x double], [6 x double], [13 x double], double, double, double, double, double, double, double, i32, double, i32, i64, i32, i32, i32, double, double, double, double, double, double, double, double, double, double, double, double, i64, i32, i64, i64, i64, i64, i64, i64, i64, i32, double, double, double, i64, i64, i64, i64, ptr, i32, ptr, i32, ptr, ptr, ptr, ptr, ptr, i64, double, i32, i64, double, double, double, i32, double, i32, i32, i32, i32, i32, ptr, i64, i32, [6 x [4 x double]], i32, i64, ptr, i32, ptr, ptr, double, double, double, ptr, ptr, ptr, double, double, i32, i32, i64, ptr, i32, ptr, i32, i32, [13 x double], [13 x double], [13 x ptr], i32 }
%struct.CVLsMemRec = type { i32, i32, i32, ptr, ptr, i32, double, i32, double, double, ptr, ptr, ptr, ptr, ptr, ptr, ptr, i64, i64, i64, i64, i64, i64, i64, i64, i64, i64, double, ptr, ptr, ptr, ptr, i32, ptr, ptr, ptr, ptr, i32, ptr, ptr, i32 }

@.str = private unnamed_addr constant [116 x i8] c"generated/home/dtcxzyw/WorkSpace/Projects/compilers/llvm-opt-benchmark/bench/sundials/sundials/src/cvode/cvode_ls.c\00", align 1
@.str.1 = private unnamed_addr constant [27 x i8] c"Integrator memory is NULL.\00", align 1
@__func__.CVodeSetLSNormFactor = private unnamed_addr constant [21 x i8] c"CVodeSetLSNormFactor\00", align 1
@.str.30 = private unnamed_addr constant [30 x i8] c"Linear solver memory is NULL.\00", align 1

; Function Attrs: nounwind uwtable
define i32 @cvLs_AccessLMem(ptr noundef %0, ptr noundef %1, ptr noundef %2, ptr noundef %3) #0 {
  %5 = alloca i32, align 4
  %6 = alloca ptr, align 8
  %7 = alloca ptr, align 8
  %8 = alloca ptr, align 8
  %9 = alloca ptr, align 8
  store ptr %0, ptr %6, align 8, !tbaa !3
  store ptr %1, ptr %7, align 8, !tbaa !117
  store ptr %2, ptr %8, align 8, !tbaa !119
  store ptr %3, ptr %9, align 8, !tbaa !121
  %10 = load ptr, ptr %6, align 8, !tbaa !3
  %11 = icmp eq ptr %10, null
  br i1 %11, label %12, label %14

12:                                               ; preds = %4
  %13 = load ptr, ptr %7, align 8, !tbaa !117
  call void (ptr, i32, i32, ptr, ptr, ptr, ...) @cvProcessError(ptr noundef null, i32 noundef -1, i32 noundef 1930, ptr noundef %13, ptr noundef @.str, ptr noundef @.str.1)
  store i32 -1, ptr %5, align 4
  br label %32

14:                                               ; preds = %4
  %15 = load ptr, ptr %6, align 8, !tbaa !3
  %16 = load ptr, ptr %8, align 8, !tbaa !119
  store ptr %15, ptr %16, align 8, !tbaa !11
  %17 = load ptr, ptr %8, align 8, !tbaa !119
  %18 = load ptr, ptr %17, align 8, !tbaa !11
  %19 = getelementptr inbounds nuw %struct.CVodeMemRec, ptr %18, i32 0, i32 94
  %20 = load ptr, ptr %19, align 8, !tbaa !79
  %21 = icmp eq ptr %20, null
  br i1 %21, label %22, label %26

22:                                               ; preds = %14
  %23 = load ptr, ptr %8, align 8, !tbaa !119
  %24 = load ptr, ptr %23, align 8, !tbaa !11
  %25 = load ptr, ptr %7, align 8, !tbaa !117
  call void (ptr, i32, i32, ptr, ptr, ptr, ...) @cvProcessError(ptr noundef %24, i32 noundef -2, i32 noundef 1937, ptr noundef %25, ptr noundef @.str, ptr noundef @.str.30)
  store i32 -2, ptr %5, align 4
  br label %32

26:                                               ; preds = %14
  %27 = load ptr, ptr %8, align 8, !tbaa !119
  %28 = load ptr, ptr %27, align 8, !tbaa !11
  %29 = getelementptr inbounds nuw %struct.CVodeMemRec, ptr %28, i32 0, i32 94
  %30 = load ptr, ptr %29, align 8, !tbaa !79
  %31 = load ptr, ptr %9, align 8, !tbaa !121
  store ptr %30, ptr %31, align 8, !tbaa !43
  store i32 0, ptr %5, align 4
  br label %32

32:                                               ; preds = %26, %22, %12
  %33 = load i32, ptr %5, align 4
  ret i32 %33
}

; Function Attrs: nounwind uwtable
define i32 @CVodeSetLSNormFactor(ptr noundef %0, double noundef %1) #0 {
  %3 = alloca i32, align 4
  %4 = alloca ptr, align 8
  %5 = alloca double, align 8
  %6 = alloca ptr, align 8
  %7 = alloca ptr, align 8
  %8 = alloca i32, align 4
  %9 = alloca i32, align 4
  store ptr %0, ptr %4, align 8, !tbaa !3
  store double %1, ptr %5, align 8, !tbaa !91
  call void @llvm.lifetime.start.p0(i64 8, ptr %6) #7
  call void @llvm.lifetime.start.p0(i64 8, ptr %7) #7
  call void @llvm.lifetime.start.p0(i64 4, ptr %8) #7
  %10 = load ptr, ptr %4, align 8, !tbaa !3
  %11 = call i32 @cvLs_AccessLMem(ptr noundef %10, ptr noundef @__func__.CVodeSetLSNormFactor, ptr noundef %6, ptr noundef %7)
  store i32 %11, ptr %8, align 4, !tbaa !20
  %12 = load i32, ptr %8, align 4, !tbaa !20
  %13 = icmp ne i32 %12, 0
  br i1 %13, label %14, label %16

14:                                               ; preds = %2
  %15 = load i32, ptr %8, align 4, !tbaa !20
  store i32 %15, ptr %3, align 4
  store i32 1, ptr %9, align 4
  br label %73

16:                                               ; preds = %2
  %17 = load double, ptr %5, align 8, !tbaa !91
  %18 = fcmp ogt double %17, 0.000000e+00
  br i1 %18, label %19, label %23

19:                                               ; preds = %16
  %20 = load double, ptr %5, align 8, !tbaa !91
  %21 = load ptr, ptr %7, align 8, !tbaa !43
  %22 = getelementptr inbounds nuw %struct.CVLsMemRec, ptr %21, i32 0, i32 9
  store double %20, ptr %22, align 8, !tbaa !76
  br label %72

23:                                               ; preds = %16
  %24 = load double, ptr %5, align 8, !tbaa !91
  %25 = fcmp olt double %24, 0.000000e+00
  br i1 %25, label %26, label %52

26:                                               ; preds = %23
  %27 = load ptr, ptr %7, align 8, !tbaa !43
  %28 = getelementptr inbounds nuw %struct.CVLsMemRec, ptr %27, i32 0, i32 13
  %29 = load ptr, ptr %28, align 8, !tbaa !74
  call void @N_VConst(double noundef 1.000000e+00, ptr noundef %29)
  %30 = load ptr, ptr %7, align 8, !tbaa !43
  %31 = getelementptr inbounds nuw %struct.CVLsMemRec, ptr %30, i32 0, i32 13
  %32 = load ptr, ptr %31, align 8, !tbaa !74
  %33 = load ptr, ptr %7, align 8, !tbaa !43
  %34 = getelementptr inbounds nuw %struct.CVLsMemRec, ptr %33, i32 0, i32 13
  %35 = load ptr, ptr %34, align 8, !tbaa !74
  %36 = call double @N_VDotProd(ptr noundef %32, ptr noundef %35)
  %37 = fcmp ole double %36, 0.000000e+00
  br i1 %37, label %38, label %39

38:                                               ; preds = %26
  br label %48

39:                                               ; preds = %26
  %40 = load ptr, ptr %7, align 8, !tbaa !43
  %41 = getelementptr inbounds nuw %struct.CVLsMemRec, ptr %40, i32 0, i32 13
  %42 = load ptr, ptr %41, align 8, !tbaa !74
  %43 = load ptr, ptr %7, align 8, !tbaa !43
  %44 = getelementptr inbounds nuw %struct.CVLsMemRec, ptr %43, i32 0, i32 13
  %45 = load ptr, ptr %44, align 8, !tbaa !74
  %46 = call double @N_VDotProd(ptr noundef %42, ptr noundef %45)
  %47 = call double @sqrt(double noundef %46) #7, !tbaa !20
  br label %48

48:                                               ; preds = %39, %38
  %49 = phi double [ 0.000000e+00, %38 ], [ %47, %39 ]
  %50 = load ptr, ptr %7, align 8, !tbaa !43
  %51 = getelementptr inbounds nuw %struct.CVLsMemRec, ptr %50, i32 0, i32 9
  store double %49, ptr %51, align 8, !tbaa !76
  br label %71

52:                                               ; preds = %23
  %53 = load ptr, ptr %7, align 8, !tbaa !43
  %54 = getelementptr inbounds nuw %struct.CVLsMemRec, ptr %53, i32 0, i32 13
  %55 = load ptr, ptr %54, align 8, !tbaa !74
  %56 = call i64 @N_VGetLength(ptr noundef %55)
  %57 = sitofp i64 %56 to double
  %58 = fcmp ole double %57, 0.000000e+00
  br i1 %58, label %59, label %60

59:                                               ; preds = %52
  br label %67

60:                                               ; preds = %52
  %61 = load ptr, ptr %7, align 8, !tbaa !43
  %62 = getelementptr inbounds nuw %struct.CVLsMemRec, ptr %61, i32 0, i32 13
  %63 = load ptr, ptr %62, align 8, !tbaa !74
  %64 = call i64 @N_VGetLength(ptr noundef %63)
  %65 = sitofp i64 %64 to double
  %66 = call double @sqrt(double noundef %65) #7, !tbaa !20
  br label %67

67:                                               ; preds = %60, %59
  %68 = phi double [ 0.000000e+00, %59 ], [ %66, %60 ]
  %69 = load ptr, ptr %7, align 8, !tbaa !43
  %70 = getelementptr inbounds nuw %struct.CVLsMemRec, ptr %69, i32 0, i32 9
  store double %68, ptr %70, align 8, !tbaa !76
  br label %71

71:                                               ; preds = %67, %48
  br label %72

72:                                               ; preds = %71, %19
  store i32 0, ptr %3, align 4
  store i32 1, ptr %9, align 4
  br label %73

73:                                               ; preds = %72, %14
  call void @llvm.lifetime.end.p0(i64 4, ptr %8) #7
  call void @llvm.lifetime.end.p0(i64 8, ptr %7) #7
  call void @llvm.lifetime.end.p0(i64 8, ptr %6) #7
  %74 = load i32, ptr %3, align 4
  ret i32 %74
}