; Function Attrs: nounwind uwtable
define range(i32 -2, 1) i32 @CVodeSetLSNormFactor(ptr noundef %0, double noundef %1) local_unnamed_addr #0 {
  %3 = icmp eq ptr %0, null
  br i1 %3, label %4, label %5

4:                                                ; preds = %2
  tail call void (ptr, i32, i32, ptr, ptr, ptr, ...) @cvProcessError(ptr noundef null, i32 noundef -1, i32 noundef 1930, ptr noundef nonnull @__func__.CVodeSetLSNormFactor, ptr noundef nonnull @.str, ptr noundef nonnull @.str.1) #13
  br label %cvLs_AccessLMem.exit.thread

5:                                                ; preds = %2
  %6 = getelementptr inbounds nuw i8, ptr %0, i64 1040
  %7 = load ptr, ptr %6, align 8, !tbaa !69
  %8 = icmp eq ptr %7, null
  br i1 %8, label %9, label %cvLs_AccessLMem.exit

9:                                                ; preds = %5
  tail call void (ptr, i32, i32, ptr, ptr, ptr, ...) @cvProcessError(ptr noundef nonnull %0, i32 noundef -2, i32 noundef 1937, ptr noundef nonnull @__func__.CVodeSetLSNormFactor, ptr noundef nonnull @.str, ptr noundef nonnull @.str.30) #13
  br label %cvLs_AccessLMem.exit.thread

cvLs_AccessLMem.exit:                             ; preds = %5
  %10 = fcmp ogt double %1, 0.000000e+00
  br i1 %10, label %11, label %13

11:                                               ; preds = %cvLs_AccessLMem.exit
  %12 = getelementptr inbounds nuw i8, ptr %7, i64 64
  store double %1, ptr %12, align 8, !tbaa !66
  br label %cvLs_AccessLMem.exit.thread

13:                                               ; preds = %cvLs_AccessLMem.exit
  %14 = fcmp olt double %1, 0.000000e+00
  %15 = getelementptr inbounds nuw i8, ptr %7, i64 96
  %16 = load ptr, ptr %15, align 8, !tbaa !63
  br i1 %14, label %17, label %28

17:                                               ; preds = %13
  tail call void @N_VConst(double noundef 1.000000e+00, ptr noundef %16) #13
  %18 = load ptr, ptr %15, align 8, !tbaa !63
  %19 = tail call double @N_VDotProd(ptr noundef %18, ptr noundef %18) #13
  %20 = fcmp ugt double %19, 0.000000e+00
  br i1 %20, label %21, label %25

21:                                               ; preds = %17
  %22 = load ptr, ptr %15, align 8, !tbaa !63
  %23 = tail call double @N_VDotProd(ptr noundef %22, ptr noundef %22) #13
  %24 = tail call double @sqrt(double noundef %23) #13, !tbaa !65
  br label %25

25:                                               ; preds = %17, %21
  %26 = phi double [ %24, %21 ], [ 0.000000e+00, %17 ]
  %27 = getelementptr inbounds nuw i8, ptr %7, i64 64
  store double %26, ptr %27, align 8, !tbaa !66
  br label %cvLs_AccessLMem.exit.thread

28:                                               ; preds = %13
  %29 = tail call i64 @N_VGetLength(ptr noundef %16) #13
  %30 = icmp slt i64 %29, 1
  br i1 %30, label %36, label %31

31:                                               ; preds = %28
  %32 = load ptr, ptr %15, align 8, !tbaa !63
  %33 = tail call i64 @N_VGetLength(ptr noundef %32) #13
  %34 = sitofp i64 %33 to double
  %35 = tail call double @sqrt(double noundef %34) #13, !tbaa !65
  br label %36

36:                                               ; preds = %28, %31
  %37 = phi double [ %35, %31 ], [ 0.000000e+00, %28 ]
  %38 = getelementptr inbounds nuw i8, ptr %7, i64 64
  store double %37, ptr %38, align 8, !tbaa !66
  br label %cvLs_AccessLMem.exit.thread

cvLs_AccessLMem.exit.thread:                      ; preds = %9, %4, %11, %36, %25
  %.0 = phi i32 [ 0, %25 ], [ 0, %36 ], [ 0, %11 ], [ -2, %9 ], [ -1, %4 ]
  ret i32 %.0
}